target datalayout = "e-m:e-p270:32:32-p271:32:32-p272:64:64-i64:64-i128:128-f80:128-n8:16:32:64-S128"
target triple = "x86_64-pc-linux-gnu"

%"struct.nanobind::dlpack::dtype" = type { i8, i8, i16 }
%"class.nanobind::object" = type { %"class.nanobind::handle" }
%"class.nanobind::handle" = type { ptr }
%"struct.nanobind::dlpack::dltensor" = type { ptr, %"struct.nanobind::dlpack::device", i32, %"struct.nanobind::dlpack::dtype", ptr, ptr, i64 }
%"struct.nanobind::dlpack::device" = type { i32, i32 }
%"class.nanobind::capsule" = type { %"class.nanobind::object" }
%class.anon.444 = type { i8 }
%"class.nanobind::ndarray.446" = type { ptr, %"struct.nanobind::dlpack::dltensor" }
%class.anon.447 = type { i8 }

@_ZN8nanobind6detail12dtype_traitsIfiE5valueE = linkonce_odr hidden constant %"struct.nanobind::dlpack::dtype" { i8 2, i8 32, i16 1 }, comdat, align 2
@"__const._ZZL30nanobind_init_test_ndarray_extRN8nanobind7module_EENK4$_51clEv.shape" = private unnamed_addr constant [2 x i64] [i64 2, i64 4], align 16

; Function Attrs: inlinehint mustprogress nounwind optsize uwtable
define linkonce_odr hidden void @_ZN8nanobind6dlpack5dtypeC2Ev(ptr noundef nonnull align 2 dereferenceable(4) %0) unnamed_addr #11 comdat align 2 {
  %2 = alloca ptr, align 8
  store ptr %0, ptr %2, align 8, !tbaa !152
  %3 = load ptr, ptr %2, align 8
  %4 = getelementptr inbounds nuw %"struct.nanobind::dlpack::dtype", ptr %3, i32 0, i32 0
  store i8 0, ptr %4, align 2, !tbaa !154
  %5 = getelementptr inbounds nuw %"struct.nanobind::dlpack::dtype", ptr %3, i32 0, i32 1
  store i8 0, ptr %5, align 1, !tbaa !155
  %6 = getelementptr inbounds nuw %"struct.nanobind::dlpack::dtype", ptr %3, i32 0, i32 2
  store i16 0, ptr %6, align 2, !tbaa !156
  ret void
}

; Function Attrs: inlinehint mustprogress nounwind optsize uwtable
define linkonce_odr hidden void @_ZN8nanobind6dlpack6deviceC2Ev(ptr noundef nonnull align 4 dereferenceable(8) %0) unnamed_addr #11 comdat align 2 {
  %2 = alloca ptr, align 8
  store ptr %0, ptr %2, align 8, !tbaa !148
  %3 = load ptr, ptr %2, align 8
  %4 = getelementptr inbounds nuw %"struct.nanobind::dlpack::device", ptr %3, i32 0, i32 0
  store i32 0, ptr %4, align 4, !tbaa !150
  %5 = getelementptr inbounds nuw %"struct.nanobind::dlpack::device", ptr %3, i32 0, i32 1
  store i32 0, ptr %5, align 4, !tbaa !151
  ret void
}

; Function Attrs: mustprogress nounwind optsize uwtable
define linkonce_odr hidden void @_ZN8nanobind6handleC2Ev(ptr noundef nonnull align 8 dereferenceable(8) %0) unnamed_addr #8 comdat align 2 {
  %2 = alloca ptr, align 8
  store ptr %0, ptr %2, align 8, !tbaa !12
  %3 = load ptr, ptr %2, align 8
  %4 = getelementptr inbounds nuw %"class.nanobind::handle", ptr %3, i32 0, i32 0
  store ptr null, ptr %4, align 8, !tbaa !14
  ret void
}

; Function Attrs: inlinehint mustprogress nounwind optsize uwtable
define linkonce_odr hidden void @_ZN8nanobind6dlpack8dltensorC2Ev(ptr noundef nonnull align 8 dereferenceable(48) %0) unnamed_addr #11 comdat align 2 {
  %2 = alloca ptr, align 8
  store ptr %0, ptr %2, align 8, !tbaa !141
  %3 = load ptr, ptr %2, align 8
  %4 = getelementptr inbounds nuw %"struct.nanobind::dlpack::dltensor", ptr %3, i32 0, i32 0
  store ptr null, ptr %4, align 8, !tbaa !143
  %5 = getelementptr inbounds nuw %"struct.nanobind::dlpack::dltensor", ptr %3, i32 0, i32 1
  call void @_ZN8nanobind6dlpack6deviceC2Ev(ptr noundef nonnull align 4 dereferenceable(8) %5) #23
  %6 = getelementptr inbounds nuw %"struct.nanobind::dlpack::dltensor", ptr %3, i32 0, i32 2
  store i32 0, ptr %6, align 8, !tbaa !144
  %7 = getelementptr inbounds nuw %"struct.nanobind::dlpack::dltensor", ptr %3, i32 0, i32 3
  call void @_ZN8nanobind6dlpack5dtypeC2Ev(ptr noundef nonnull align 2 dereferenceable(4) %7) #23
  %8 = getelementptr inbounds nuw %"struct.nanobind::dlpack::dltensor", ptr %3, i32 0, i32 4
  store ptr null, ptr %8, align 8, !tbaa !145
  %9 = getelementptr inbounds nuw %"struct.nanobind::dlpack::dltensor", ptr %3, i32 0, i32 5
  store ptr null, ptr %9, align 8, !tbaa !146
  %10 = getelementptr inbounds nuw %"struct.nanobind::dlpack::dltensor", ptr %3, i32 0, i32 6
  store i64 0, ptr %10, align 8, !tbaa !147
  ret void
}

; Function Attrs: mustprogress nounwind optsize uwtable
define linkonce_odr hidden void @_ZN8nanobind6objectC2Ev(ptr noundef nonnull align 8 dereferenceable(8) %0) unnamed_addr #8 comdat align 2 {
  %2 = alloca ptr, align 8
  store ptr %0, ptr %2, align 8, !tbaa !21
  %3 = load ptr, ptr %2, align 8
  call void @_ZN8nanobind6handleC2Ev(ptr noundef nonnull align 8 dereferenceable(8) %3) #23
  ret void
}

; Function Attrs: noinline noreturn nounwind optsize uwtable
define linkonce_odr hidden void @__clang_call_terminate(ptr noundef %0) #7 comdat {
  %2 = call ptr @__cxa_begin_catch(ptr %0) #22
  call void @_ZSt9terminatev() #24
  unreachable
}

; Function Attrs: alwaysinline mustprogress nounwind optsize uwtable
define linkonce_odr hidden void @_ZN8nanobind6handleC2EPK7_object(ptr noundef nonnull align 8 dereferenceable(8) %0, ptr noundef %1) unnamed_addr #5 comdat align 2 {
  %3 = alloca ptr, align 8
  %4 = alloca ptr, align 8
  store ptr %0, ptr %3, align 8, !tbaa !12
  store ptr %1, ptr %4, align 8, !tbaa !3
  %5 = load ptr, ptr %3, align 8
  %6 = getelementptr inbounds nuw %"class.nanobind::handle", ptr %5, i32 0, i32 0
  %7 = load ptr, ptr %4, align 8, !tbaa !3
  store ptr %7, ptr %6, align 8, !tbaa !14
  ret void
}

; Function Attrs: mustprogress nounwind optsize uwtable
define linkonce_odr hidden noundef ptr @_ZNK8nanobind7ndarrayIJNS_7pytorchEfNS_6detail5shapeIJLl2ELl4EEEEEE6handleEv(ptr noundef nonnull align 8 dereferenceable(56) %0) #8 comdat align 2 {
  %2 = alloca ptr, align 8
  store ptr %0, ptr %2, align 8, !tbaa !625
  %3 = load ptr, ptr %2, align 8
  %4 = getelementptr inbounds nuw %"class.nanobind::ndarray.446", ptr %3, i32 0, i32 0
  %5 = load ptr, ptr %4, align 8, !tbaa !627
  ret ptr %5
}

; Function Attrs: mustprogress nounwind optsize uwtable
define linkonce_odr hidden void @_ZN8nanobind6objectD2Ev(ptr noundef nonnull align 8 dereferenceable(8) %0) unnamed_addr #8 comdat align 2 {
  %2 = alloca ptr, align 8
  store ptr %0, ptr %2, align 8, !tbaa !21
  %3 = load ptr, ptr %2, align 8
  %4 = call noundef nonnull align 8 dereferenceable(8) ptr @_ZNKR8nanobind6handle7dec_refEv(ptr noundef nonnull align 8 dereferenceable(8) %3) #23
  ret void
}

; Function Attrs: mustprogress optsize uwtable
define linkonce_odr hidden void @_ZN8nanobind7ndarrayIJNS_7pytorchEfNS_6detail5shapeIJLl2ELl4EEEEEEC2EPvmPKmNS_6handleEPKlNS_6dlpack5dtypeEiic(ptr noundef nonnull align 8 dereferenceable(56) %0, ptr noundef %1, i64 noundef %2, ptr noundef %3, ptr %4, ptr noundef %5, i32 %6, i32 noundef %7, i32 noundef %8, i8 noundef signext %9) unnamed_addr #0 comdat align 2 {
  %11 = alloca %"class.nanobind::handle", align 8
  %12 = alloca %"struct.nanobind::dlpack::dtype", align 2
  %13 = alloca ptr, align 8
  %14 = alloca ptr, align 8
  %15 = alloca i64, align 8
  %16 = alloca ptr, align 8
  %17 = alloca ptr, align 8
  %18 = alloca i32, align 4
  %19 = alloca i32, align 4
  %20 = alloca i8, align 1
  %21 = alloca %"struct.nanobind::dlpack::dtype", align 2
  %22 = getelementptr inbounds nuw %"class.nanobind::handle", ptr %11, i32 0, i32 0
  store ptr %4, ptr %22, align 8
  store i32 %6, ptr %12, align 2
  store ptr %0, ptr %13, align 8, !tbaa !625
  store ptr %1, ptr %14, align 8, !tbaa !29
  store i64 %2, ptr %15, align 8, !tbaa !32
  store ptr %3, ptr %16, align 8, !tbaa !115
  store ptr %5, ptr %17, align 8, !tbaa !115
  store i32 %7, ptr %18, align 4, !tbaa !72
  store i32 %8, ptr %19, align 4, !tbaa !72
  store i8 %9, ptr %20, align 1, !tbaa !20
  %23 = load ptr, ptr %13, align 8
  %24 = getelementptr inbounds nuw %"class.nanobind::ndarray.446", ptr %23, i32 0, i32 0
  store ptr null, ptr %24, align 8, !tbaa !627
  %25 = getelementptr inbounds nuw %"class.nanobind::ndarray.446", ptr %23, i32 0, i32 1
  call void @_ZN8nanobind6dlpack8dltensorC2Ev(ptr noundef nonnull align 8 dereferenceable(48) %25) #23
  %26 = load ptr, ptr %14, align 8, !tbaa !29
  %27 = load i64, ptr %15, align 8, !tbaa !32
  %28 = load ptr, ptr %16, align 8, !tbaa !115
  %29 = call noundef ptr @_ZNK8nanobind6handle3ptrEv(ptr noundef nonnull align 8 dereferenceable(8) %11) #21
  %30 = load ptr, ptr %17, align 8, !tbaa !115
  call void @llvm.memcpy.p0.p0.i64(ptr align 2 %21, ptr align 2 %12, i64 4, i1 false), !tbaa.struct !170
  %31 = load i32, ptr %18, align 4, !tbaa !72
  %32 = load i32, ptr %19, align 4, !tbaa !72
  %33 = load i8, ptr %20, align 1, !tbaa !20
  %34 = load i32, ptr %21, align 2
  %35 = call noundef ptr @_ZN8nanobind6detail14ndarray_createEPvmPKmP7_objectPKlNS_6dlpack5dtypeEbiic(ptr noundef %26, i64 noundef %27, ptr noundef %28, ptr noundef %29, ptr noundef %30, i32 %34, i1 noundef zeroext false, i32 noundef %31, i32 noundef %32, i8 noundef signext %33) #21
  %36 = getelementptr inbounds nuw %"class.nanobind::ndarray.446", ptr %23, i32 0, i32 0
  store ptr %35, ptr %36, align 8, !tbaa !627
  %37 = getelementptr inbounds nuw %"class.nanobind::ndarray.446", ptr %23, i32 0, i32 0
  %38 = load ptr, ptr %37, align 8, !tbaa !627
  %39 = call noundef ptr @_ZN8nanobind6detail15ndarray_inc_refEPNS0_14ndarray_handleE(ptr noundef %38) #23
  %40 = getelementptr inbounds nuw %"class.nanobind::ndarray.446", ptr %23, i32 0, i32 1
  call void @llvm.memcpy.p0.p0.i64(ptr align 8 %40, ptr align 8 %39, i64 48, i1 false), !tbaa.struct !159
  ret void
}

; Function Attrs: mustprogress nounwind optsize uwtable
define linkonce_odr hidden i32 @_ZN8nanobind5dtypeIfEENS_6dlpack5dtypeEv() #8 comdat {
  %1 = alloca %"struct.nanobind::dlpack::dtype", align 2
  call void @llvm.memcpy.p0.p0.i64(ptr align 2 %1, ptr align 2 @_ZN8nanobind6detail12dtype_traitsIfiE5valueE, i64 4, i1 false), !tbaa.struct !170
  %2 = load i32, ptr %1, align 2
  ret i32 %2
}

; Function Attrs: mustprogress nounwind optsize uwtable
define linkonce_odr hidden void @_ZN8nanobind7capsuleC2EPKvPDoFvPvE(ptr noundef nonnull align 8 dereferenceable(8) %0, ptr noundef %1, ptr noundef %2) unnamed_addr #8 comdat align 2 {
  %4 = alloca ptr, align 8
  %5 = alloca ptr, align 8
  %6 = alloca ptr, align 8
  store ptr %0, ptr %4, align 8, !tbaa !574
  store ptr %1, ptr %5, align 8, !tbaa !29
  store ptr %2, ptr %6, align 8, !tbaa !29
  %7 = load ptr, ptr %4, align 8
  call void @_ZN8nanobind6objectC2Ev(ptr noundef nonnull align 8 dereferenceable(8) %7) #23
  %8 = load ptr, ptr %5, align 8, !tbaa !29
  %9 = load ptr, ptr %6, align 8, !tbaa !29
  %10 = call noundef ptr @_ZN8nanobind6detail11capsule_newEPKvPKcPDoFvPvE(ptr noundef %8, ptr noundef null, ptr noundef %9) #23
  %11 = getelementptr inbounds nuw %"class.nanobind::handle", ptr %7, i32 0, i32 0
  store ptr %10, ptr %11, align 8, !tbaa !14
  ret void
}

; Function Attrs: inlinehint mustprogress nounwind optsize uwtable
define internal noundef ptr @"_ZZZL30nanobind_init_test_ndarray_extRN8nanobind7module_EENK4$_51clEvENKUlPvE_cvPDoFvS3_EEv"(ptr noundef nonnull align 1 dereferenceable(1) %0) #11 align 2 {
  %2 = alloca ptr, align 8
  store ptr %0, ptr %2, align 8, !tbaa !29
  ret ptr @"_ZZZL30nanobind_init_test_ndarray_extRN8nanobind7module_EENK4$_51clEvENUlPvE_8__invokeES3_"
}

; Function Attrs: mustprogress nounwind optsize uwtable
define linkonce_odr hidden void @_ZN8nanobind7ndarrayIJNS_7pytorchEfNS_6detail5shapeIJLl2ELl4EEEEEED2Ev(ptr noundef nonnull align 8 dereferenceable(56) %0) unnamed_addr #8 comdat align 2 {
  %2 = alloca ptr, align 8
  store ptr %0, ptr %2, align 8, !tbaa !625
  %3 = load ptr, ptr %2, align 8
  %4 = getelementptr inbounds nuw %"class.nanobind::ndarray.446", ptr %3, i32 0, i32 0
  %5 = load ptr, ptr %4, align 8, !tbaa !627
  call void @_ZN8nanobind6detail15ndarray_dec_refEPNS0_14ndarray_handleE(ptr noundef %5) #23
  ret void
}

; Function Attrs: alwaysinline mustprogress nounwind optsize uwtable
define linkonce_odr hidden noundef ptr @_ZNK8nanobind6handle3ptrEv(ptr noundef nonnull align 8 dereferenceable(8) %0) #5 comdat align 2 {
  %2 = alloca ptr, align 8
  store ptr %0, ptr %2, align 8, !tbaa !12
  %3 = load ptr, ptr %2, align 8
  %4 = getelementptr inbounds nuw %"class.nanobind::handle", ptr %3, i32 0, i32 0
  %5 = load ptr, ptr %4, align 8, !tbaa !14
  ret ptr %5
}

; Function Attrs: mustprogress nounwind optsize uwtable
define linkonce_odr hidden ptr @_ZN8nanobind6detail11type_casterINS_7ndarrayIJNS_7pytorchEfNS0_5shapeIJLl2ELl4EEEEEEEiE8from_cppERKS6_NS_9rv_policyEPNS0_12cleanup_listE(ptr noundef nonnull align 8 dereferenceable(56) %0, i32 noundef %1, ptr noundef %2) #8 comdat align 2 personality ptr @__gxx_personality_v0 {
  %4 = alloca %"class.nanobind::handle", align 8
  %5 = alloca ptr, align 8
  %6 = alloca i32, align 4
  %7 = alloca ptr, align 8
  store ptr %0, ptr %5, align 8, !tbaa !625
  store i32 %1, ptr %6, align 4, !tbaa !18
  store ptr %2, ptr %7, align 8, !tbaa !127
  %8 = load ptr, ptr %5, align 8, !tbaa !625
  %9 = invoke noundef ptr @_ZNK8nanobind7ndarrayIJNS_7pytorchEfNS_6detail5shapeIJLl2ELl4EEEEEE6handleEv(ptr noundef nonnull align 8 dereferenceable(56) %8) #21
          to label %10 unwind label %17

10:                                               ; preds = %3
  %11 = load i32, ptr %6, align 4, !tbaa !18
  %12 = load ptr, ptr %7, align 8, !tbaa !127
  %13 = call noundef ptr @_ZN8nanobind6detail14ndarray_exportEPNS0_14ndarray_handleEiNS_9rv_policyEPNS0_12cleanup_listE(ptr noundef %9, i32 noundef 2, i32 noundef %11, ptr noundef %12) #23
  invoke void @_ZN8nanobind6handleC2EPK7_object(ptr noundef nonnull align 8 dereferenceable(8) %4, ptr noundef %13) #21
          to label %14 unwind label %17

14:                                               ; preds = %10
  %15 = getelementptr inbounds nuw %"class.nanobind::handle", ptr %4, i32 0, i32 0
  %16 = load ptr, ptr %15, align 8
  ret ptr %16

17:                                               ; preds = %10, %3
  %18 = landingpad { ptr, i32 }
          catch ptr null
  %19 = extractvalue { ptr, i32 } %18, 0
  call void @__clang_call_terminate(ptr %19) #24
  unreachable
}

; Function Attrs: inlinehint mustprogress optsize uwtable
define internal void @"_ZZL30nanobind_init_test_ndarray_extRN8nanobind7module_EENK4$_51clEv"(ptr dead_on_unwind noalias writable sret(%"class.nanobind::ndarray.446") align 8 %0, ptr noundef nonnull align 1 dereferenceable(1) %1) #9 align 2 personality ptr @__gxx_personality_v0 {
  %3 = alloca ptr, align 8
  %4 = alloca ptr, align 8
  %5 = alloca ptr, align 8
  %6 = alloca [2 x i64], align 16
  %7 = alloca %"class.nanobind::capsule", align 8
  %8 = alloca %class.anon.447, align 1
  %9 = alloca %"class.nanobind::handle", align 8
  %10 = alloca %"struct.nanobind::dlpack::dtype", align 2
  %11 = alloca ptr, align 8
  %12 = alloca i32, align 4
  store ptr %0, ptr %3, align 8
  store ptr %1, ptr %4, align 8, !tbaa !29
  call void @llvm.lifetime.start.p0(i64 8, ptr %5) #22
  %13 = call noalias noundef nonnull ptr @_Znam(i64 noundef 32) #26
  store float 1.000000e+00, ptr %13, align 4, !tbaa !494
  %14 = getelementptr inbounds float, ptr %13, i64 1
  store float 2.000000e+00, ptr %14, align 4, !tbaa !494
  %15 = getelementptr inbounds float, ptr %14, i64 1
  store float 3.000000e+00, ptr %15, align 4, !tbaa !494
  %16 = getelementptr inbounds float, ptr %15, i64 1
  store float 4.000000e+00, ptr %16, align 4, !tbaa !494
  %17 = getelementptr inbounds float, ptr %16, i64 1
  store float 5.000000e+00, ptr %17, align 4, !tbaa !494
  %18 = getelementptr inbounds float, ptr %17, i64 1
  store float 6.000000e+00, ptr %18, align 4, !tbaa !494
  %19 = getelementptr inbounds float, ptr %18, i64 1
  store float 7.000000e+00, ptr %19, align 4, !tbaa !494
  %20 = getelementptr inbounds float, ptr %19, i64 1
  store float 8.000000e+00, ptr %20, align 4, !tbaa !494
  store ptr %13, ptr %5, align 8, !tbaa !570
  call void @llvm.lifetime.start.p0(i64 16, ptr %6) #22
  call void @llvm.memcpy.p0.p0.i64(ptr align 16 %6, ptr align 16 @"__const._ZZL30nanobind_init_test_ndarray_extRN8nanobind7module_EENK4$_51clEv.shape", i64 16, i1 false)
  call void @llvm.lifetime.start.p0(i64 8, ptr %7) #22
  %21 = load ptr, ptr %5, align 8, !tbaa !570
  call void @llvm.lifetime.start.p0(i64 1, ptr %8) #22
  %22 = call noundef ptr @"_ZZZL30nanobind_init_test_ndarray_extRN8nanobind7module_EENK4$_51clEvENKUlPvE_cvPDoFvS3_EEv"(ptr noundef nonnull align 1 dereferenceable(1) %8) #23
  call void @_ZN8nanobind7capsuleC2EPKvPDoFvPvE(ptr noundef nonnull align 8 dereferenceable(8) %7, ptr noundef %21, ptr noundef %22) #21
  call void @llvm.lifetime.end.p0(i64 1, ptr %8) #22
  %23 = load ptr, ptr %5, align 8, !tbaa !570
  %24 = getelementptr inbounds [2 x i64], ptr %6, i64 0, i64 0
  call void @llvm.memcpy.p0.p0.i64(ptr align 8 %9, ptr align 8 %7, i64 8, i1 false)
  %25 = call i32 @_ZN8nanobind5dtypeIfEENS_6dlpack5dtypeEv() #21
  store i32 %25, ptr %10, align 2
  %26 = getelementptr inbounds nuw %"class.nanobind::handle", ptr %9, i32 0, i32 0
  %27 = load ptr, ptr %26, align 8
  %28 = load i32, ptr %10, align 2
  invoke void @_ZN8nanobind7ndarrayIJNS_7pytorchEfNS_6detail5shapeIJLl2ELl4EEEEEEC2EPvmPKmNS_6handleEPKlNS_6dlpack5dtypeEiic(ptr noundef nonnull align 8 dereferenceable(56) %0, ptr noundef %23, i64 noundef 2, ptr noundef %24, ptr %27, ptr noundef null, i32 %28, i32 noundef 0, i32 noundef 0, i8 noundef signext 0) #21
          to label %29 unwind label %30

29:                                               ; preds = %2
  call void @_ZN8nanobind6objectD2Ev(ptr noundef nonnull align 8 dereferenceable(8) %7) #23
  call void @llvm.lifetime.end.p0(i64 8, ptr %7) #22
  call void @llvm.lifetime.end.p0(i64 16, ptr %6) #22
  call void @llvm.lifetime.end.p0(i64 8, ptr %5) #22
  ret void

30:                                               ; preds = %2
  %31 = landingpad { ptr, i32 }
          cleanup
  %32 = extractvalue { ptr, i32 } %31, 0
  store ptr %32, ptr %11, align 8
  %33 = extractvalue { ptr, i32 } %31, 1
  store i32 %33, ptr %12, align 4
  call void @_ZN8nanobind6objectD2Ev(ptr noundef nonnull align 8 dereferenceable(8) %7) #23
  call void @llvm.lifetime.end.p0(i64 8, ptr %7) #22
  call void @llvm.lifetime.end.p0(i64 16, ptr %6) #22
  call void @llvm.lifetime.end.p0(i64 8, ptr %5) #22
  br label %34

34:                                               ; preds = %30
  %35 = load ptr, ptr %11, align 8
  %36 = load i32, ptr %12, align 4
  %37 = insertvalue { ptr, i32 } poison, ptr %35, 0
  %38 = insertvalue { ptr, i32 } %37, i32 %36, 1
  resume { ptr, i32 } %38
}

; Function Attrs: alwaysinline mustprogress optsize uwtable
define internal noundef ptr @"_ZZN8nanobind6detail11func_createILb0ELb1EZL30nanobind_init_test_ndarray_extRNS_7module_EE4$_51NS_7ndarrayIJNS_7pytorchEfNS0_5shapeIJLl2ELl4EEEEEEEJETpTnmJEJNS_5scopeENS_4nameEEEEP7_objectOT1_PFT2_DpT3_ESt16integer_sequenceImJXspT4_EEEDpRKT5_ENKUlPvPSD_PhNS_9rv_policyEPNS0_12cleanup_listEE_clESR_SS_ST_SU_SW_"(ptr noundef nonnull align 1 dereferenceable(1) %0, ptr noundef %1, ptr noundef %2, ptr noundef %3, i32 noundef %4, ptr noundef %5) #3 align 2 {
  %7 = alloca ptr, align 8
  %8 = alloca ptr, align 8
  %9 = alloca ptr, align 8
  %10 = alloca ptr, align 8
  %11 = alloca i32, align 4
  %12 = alloca ptr, align 8
  %13 = alloca ptr, align 8
  %14 = alloca ptr, align 8
  %15 = alloca %"class.nanobind::handle", align 8
  %16 = alloca %"class.nanobind::ndarray.446", align 8
  store ptr %0, ptr %7, align 8, !tbaa !29
  store ptr %1, ptr %8, align 8, !tbaa !29
  store ptr %2, ptr %9, align 8, !tbaa !125
  store ptr %3, ptr %10, align 8, !tbaa !27
  store i32 %4, ptr %11, align 4, !tbaa !18
  store ptr %5, ptr %12, align 8, !tbaa !127
  call void @llvm.lifetime.start.p0(i64 8, ptr %13) #22
  %17 = load ptr, ptr %8, align 8, !tbaa !29
  store ptr %17, ptr %13, align 8, !tbaa !621
  call void @llvm.lifetime.start.p0(i64 8, ptr %14) #22
  call void @llvm.lifetime.start.p0(i64 8, ptr %15) #22
  call void @llvm.lifetime.start.p0(i64 56, ptr %16) #22
  %18 = load ptr, ptr %13, align 8, !tbaa !621
  call void @"_ZZL30nanobind_init_test_ndarray_extRN8nanobind7module_EENK4$_51clEv"(ptr dead_on_unwind writable sret(%"class.nanobind::ndarray.446") align 8 %16, ptr noundef nonnull align 1 dereferenceable(1) %18) #21
  %19 = load i32, ptr %11, align 4, !tbaa !18
  %20 = load ptr, ptr %12, align 8, !tbaa !127
  %21 = call ptr @_ZN8nanobind6detail11type_casterINS_7ndarrayIJNS_7pytorchEfNS0_5shapeIJLl2ELl4EEEEEEEiE8from_cppERKS6_NS_9rv_policyEPNS0_12cleanup_listE(ptr noundef nonnull align 8 dereferenceable(56) %16, i32 noundef %19, ptr noundef %20) #23
  %22 = getelementptr inbounds nuw %"class.nanobind::handle", ptr %15, i32 0, i32 0
  store ptr %21, ptr %22, align 8
  %23 = call noundef ptr @_ZNK8nanobind6handle3ptrEv(ptr noundef nonnull align 8 dereferenceable(8) %15) #21
  store ptr %23, ptr %14, align 8, !tbaa !3
  call void @_ZN8nanobind7ndarrayIJNS_7pytorchEfNS_6detail5shapeIJLl2ELl4EEEEEED2Ev(ptr noundef nonnull align 8 dereferenceable(56) %16) #23
  call void @llvm.lifetime.end.p0(i64 56, ptr %16) #22
  call void @llvm.lifetime.end.p0(i64 8, ptr %15) #22
  %24 = load ptr, ptr %14, align 8, !tbaa !3
  call void @llvm.lifetime.end.p0(i64 8, ptr %14) #22
  call void @llvm.lifetime.end.p0(i64 8, ptr %13) #22
  ret ptr %24
}

; Function Attrs: inlinehint mustprogress optsize uwtable
define internal noundef ptr @"_ZZN8nanobind6detail11func_createILb0ELb1EZL30nanobind_init_test_ndarray_extRNS_7module_EE4$_51NS_7ndarrayIJNS_7pytorchEfNS0_5shapeIJLl2ELl4EEEEEEEJETpTnmJEJNS_5scopeENS_4nameEEEEP7_objectOT1_PFT2_DpT3_ESt16integer_sequenceImJXspT4_EEEDpRKT5_ENUlPvPSD_PhNS_9rv_policyEPNS0_12cleanup_listEE_8__invokeESR_SS_ST_SU_SW_"(ptr noundef %0, ptr noundef %1, ptr noundef %2, i32 noundef %3, ptr noundef %4) #9 align 2 {
  %6 = alloca ptr, align 8
  %7 = alloca ptr, align 8
  %8 = alloca ptr, align 8
  %9 = alloca i32, align 4
  %10 = alloca ptr, align 8
  %11 = alloca %class.anon.444, align 1
  store ptr %0, ptr %6, align 8, !tbaa !29
  store ptr %1, ptr %7, align 8, !tbaa !125
  store ptr %2, ptr %8, align 8, !tbaa !27
  store i32 %3, ptr %9, align 4, !tbaa !18
  store ptr %4, ptr %10, align 8, !tbaa !127
  %12 = load ptr, ptr %6, align 8, !tbaa !29
  %13 = load ptr, ptr %7, align 8, !tbaa !125
  %14 = load ptr, ptr %8, align 8, !tbaa !27
  %15 = load i32, ptr %9, align 4, !tbaa !18
  %16 = load ptr, ptr %10, align 8, !tbaa !127
  %17 = call noundef ptr @"_ZZN8nanobind6detail11func_createILb0ELb1EZL30nanobind_init_test_ndarray_extRNS_7module_EE4$_51NS_7ndarrayIJNS_7pytorchEfNS0_5shapeIJLl2ELl4EEEEEEEJETpTnmJEJNS_5scopeENS_4nameEEEEP7_objectOT1_PFT2_DpT3_ESt16integer_sequenceImJXspT4_EEEDpRKT5_ENKUlPvPSD_PhNS_9rv_policyEPNS0_12cleanup_listEE_clESR_SS_ST_SU_SW_"(ptr noundef nonnull align 1 dereferenceable(1) %11, ptr noundef %12, ptr noundef %13, ptr noundef %14, i32 noundef %15, ptr noundef %16) #21
  ret ptr %17
}